target datalayout = "e-m:e-p270:32:32-p271:32:32-p272:64:64-i64:64-i128:128-f80:128-n8:16:32:64-S128"
target triple = "x86_64-unknown-linux-gnu"

@_ZN5arrow8internalL9max_uintsE = internal constant [9 x i64] [i64 0, i64 255, i64 65535, i64 0, i64 4294967295, i64 0, i64 0, i64 0, i64 -1], align 16

; Function Attrs: mustprogress nounwind uwtable
define internal noundef zeroext i8 @_ZN5arrow8internalL17ExpandedUIntWidthEmh(i64 noundef %val, i8 noundef zeroext %current_width) #0 {
entry:
  %retval = alloca i8, align 1
  %val.addr = alloca i64, align 8
  %current_width.addr = alloca i8, align 1
  store i64 %val, ptr %val.addr, align 8
  store i8 %current_width, ptr %current_width.addr, align 1
  %0 = load i64, ptr %val.addr, align 8
  %1 = load i8, ptr %current_width.addr, align 1
  %idxprom = zext i8 %1 to i64
  %arrayidx = getelementptr inbounds [9 x i64], ptr @_ZN5arrow8internalL9max_uintsE, i64 0, i64 %idxprom
  %2 = load i64, ptr %arrayidx, align 8
  %cmp = icmp ule i64 %0, %2
  %lnot = xor i1 %cmp, true
  %lnot1 = xor i1 %lnot, true
  br i1 %lnot1, label %if.then, label %if.end

if.then:                                          ; preds = %entry
  %3 = load i8, ptr %current_width.addr, align 1
  store i8 %3, ptr %retval, align 1
  br label %return

if.end:                                           ; preds = %entry
  %4 = load i8, ptr %current_width.addr, align 1
  %conv = zext i8 %4 to i32
  %cmp2 = icmp eq i32 %conv, 1
  br i1 %cmp2, label %land.lhs.true, label %if.else

land.lhs.true:                                    ; preds = %if.end
  %5 = load i64, ptr %val.addr, align 8
  %cmp3 = icmp ule i64 %5, 255
  br i1 %cmp3, label %if.then4, label %if.else

if.then4:                                         ; preds = %land.lhs.true
  store i8 1, ptr %retval, align 1
  br label %return

if.else:                                          ; preds = %land.lhs.true, %if.end
  %6 = load i8, ptr %current_width.addr, align 1
  %conv5 = zext i8 %6 to i32
  %cmp6 = icmp sle i32 %conv5, 2
  br i1 %cmp6, label %land.lhs.true7, label %if.else10

land.lhs.true7:                                   ; preds = %if.else
  %7 = load i64, ptr %val.addr, align 8
  %cmp8 = icmp ule i64 %7, 65535
  br i1 %cmp8, label %if.then9, label %if.else10

if.then9:                                         ; preds = %land.lhs.true7
  store i8 2, ptr %retval, align 1
  br label %return

if.else10:                                        ; preds = %land.lhs.true7, %if.else
  %8 = load i8, ptr %current_width.addr, align 1
  %conv11 = zext i8 %8 to i32
  %cmp12 = icmp sle i32 %conv11, 4
  br i1 %cmp12, label %land.lhs.true13, label %if.else16

land.lhs.true13:                                  ; preds = %if.else10
  %9 = load i64, ptr %val.addr, align 8
  %cmp14 = icmp ule i64 %9, 4294967295
  br i1 %cmp14, label %if.then15, label %if.else16

if.then15:                                        ; preds = %land.lhs.true13
  store i8 4, ptr %retval, align 1
  br label %return

if.else16:                                        ; preds = %land.lhs.true13, %if.else10
  store i8 8, ptr %retval, align 1
  br label %return

return:                                           ; preds = %if.else16, %if.then15, %if.then9, %if.then4, %if.then
  %10 = load i8, ptr %retval, align 1
  ret i8 %10
}

; Function Attrs: mustprogress uwtable
define noundef zeroext i8 @_ZN5arrow8internal15DetectUIntWidthEPKmlh(ptr noundef %values, i64 noundef %length, i8 noundef zeroext %min_width) #1 {
entry:
  %values.addr = alloca ptr, align 8
  %length.addr = alloca i64, align 8
  %min_width.addr = alloca i8, align 1
  %width = alloca i8, align 1
  %p = alloca ptr, align 8
  %end = alloca ptr, align 8
  %u = alloca i64, align 8
  %v = alloca i64, align 8
  %w = alloca i64, align 8
  %x = alloca i64, align 8
  %u41 = alloca i64, align 8
  %v43 = alloca i64, align 8
  %w45 = alloca i64, align 8
  %x47 = alloca i64, align 8
  store ptr %values, ptr %values.addr, align 8
  store i64 %length, ptr %length.addr, align 8
  store i8 %min_width, ptr %min_width.addr, align 1
  %0 = load i8, ptr %min_width.addr, align 1
  store i8 %0, ptr %width, align 1
  %1 = load i8, ptr %min_width.addr, align 1
  %conv = zext i8 %1 to i32
  %cmp = icmp slt i32 %conv, 8
  br i1 %cmp, label %if.then, label %if.end68

if.then:                                          ; preds = %entry
  %2 = load ptr, ptr %values.addr, align 8
  store ptr %2, ptr %p, align 8
  %3 = load ptr, ptr %p, align 8
  %4 = load i64, ptr %length.addr, align 8
  %add.ptr = getelementptr inbounds i64, ptr %3, i64 %4
  store ptr %add.ptr, ptr %end, align 8
  br label %while.cond

while.cond:                                       ; preds = %if.end, %if.then
  %5 = load ptr, ptr %p, align 8
  %6 = load ptr, ptr %end, align 8
  %add.ptr1 = getelementptr inbounds i64, ptr %6, i64 -16
  %cmp2 = icmp ule ptr %5, %add.ptr1
  br i1 %cmp2, label %while.body, label %while.end

while.body:                                       ; preds = %while.cond
  %7 = load ptr, ptr %p, align 8
  %arrayidx = getelementptr inbounds i64, ptr %7, i64 0
  %8 = load i64, ptr %arrayidx, align 8
  store i64 %8, ptr %u, align 8
  %9 = load ptr, ptr %p, align 8
  %arrayidx3 = getelementptr inbounds i64, ptr %9, i64 1
  %10 = load i64, ptr %arrayidx3, align 8
  store i64 %10, ptr %v, align 8
  %11 = load ptr, ptr %p, align 8
  %arrayidx4 = getelementptr inbounds i64, ptr %11, i64 2
  %12 = load i64, ptr %arrayidx4, align 8
  store i64 %12, ptr %w, align 8
  %13 = load ptr, ptr %p, align 8
  %arrayidx5 = getelementptr inbounds i64, ptr %13, i64 3
  %14 = load i64, ptr %arrayidx5, align 8
  store i64 %14, ptr %x, align 8
  %15 = load ptr, ptr %p, align 8
  %arrayidx6 = getelementptr inbounds i64, ptr %15, i64 4
  %16 = load i64, ptr %arrayidx6, align 8
  %17 = load i64, ptr %u, align 8
  %or = or i64 %17, %16
  store i64 %or, ptr %u, align 8
  %18 = load ptr, ptr %p, align 8
  %arrayidx7 = getelementptr inbounds i64, ptr %18, i64 5
  %19 = load i64, ptr %arrayidx7, align 8
  %20 = load i64, ptr %v, align 8
  %or8 = or i64 %20, %19
  store i64 %or8, ptr %v, align 8
  %21 = load ptr, ptr %p, align 8
  %arrayidx9 = getelementptr inbounds i64, ptr %21, i64 6
  %22 = load i64, ptr %arrayidx9, align 8
  %23 = load i64, ptr %w, align 8
  %or10 = or i64 %23, %22
  store i64 %or10, ptr %w, align 8
  %24 = load ptr, ptr %p, align 8
  %arrayidx11 = getelementptr inbounds i64, ptr %24, i64 7
  %25 = load i64, ptr %arrayidx11, align 8
  %26 = load i64, ptr %x, align 8
  %or12 = or i64 %26, %25
  store i64 %or12, ptr %x, align 8
  %27 = load ptr, ptr %p, align 8
  %arrayidx13 = getelementptr inbounds i64, ptr %27, i64 8
  %28 = load i64, ptr %arrayidx13, align 8
  %29 = load i64, ptr %u, align 8
  %or14 = or i64 %29, %28
  store i64 %or14, ptr %u, align 8
  %30 = load ptr, ptr %p, align 8
  %arrayidx15 = getelementptr inbounds i64, ptr %30, i64 9
  %31 = load i64, ptr %arrayidx15, align 8
  %32 = load i64, ptr %v, align 8
  %or16 = or i64 %32, %31
  store i64 %or16, ptr %v, align 8
  %33 = load ptr, ptr %p, align 8
  %arrayidx17 = getelementptr inbounds i64, ptr %33, i64 10
  %34 = load i64, ptr %arrayidx17, align 8
  %35 = load i64, ptr %w, align 8
  %or18 = or i64 %35, %34
  store i64 %or18, ptr %w, align 8
  %36 = load ptr, ptr %p, align 8
  %arrayidx19 = getelementptr inbounds i64, ptr %36, i64 11
  %37 = load i64, ptr %arrayidx19, align 8
  %38 = load i64, ptr %x, align 8
  %or20 = or i64 %38, %37
  store i64 %or20, ptr %x, align 8
  %39 = load ptr, ptr %p, align 8
  %arrayidx21 = getelementptr inbounds i64, ptr %39, i64 12
  %40 = load i64, ptr %arrayidx21, align 8
  %41 = load i64, ptr %u, align 8
  %or22 = or i64 %41, %40
  store i64 %or22, ptr %u, align 8
  %42 = load ptr, ptr %p, align 8
  %arrayidx23 = getelementptr inbounds i64, ptr %42, i64 13
  %43 = load i64, ptr %arrayidx23, align 8
  %44 = load i64, ptr %v, align 8
  %or24 = or i64 %44, %43
  store i64 %or24, ptr %v, align 8
  %45 = load ptr, ptr %p, align 8
  %arrayidx25 = getelementptr inbounds i64, ptr %45, i64 14
  %46 = load i64, ptr %arrayidx25, align 8
  %47 = load i64, ptr %w, align 8
  %or26 = or i64 %47, %46
  store i64 %or26, ptr %w, align 8
  %48 = load ptr, ptr %p, align 8
  %arrayidx27 = getelementptr inbounds i64, ptr %48, i64 15
  %49 = load i64, ptr %arrayidx27, align 8
  %50 = load i64, ptr %x, align 8
  %or28 = or i64 %50, %49
  store i64 %or28, ptr %x, align 8
  %51 = load ptr, ptr %p, align 8
  %add.ptr29 = getelementptr inbounds i64, ptr %51, i64 16
  store ptr %add.ptr29, ptr %p, align 8
  %52 = load i64, ptr %u, align 8
  %53 = load i64, ptr %v, align 8
  %or30 = or i64 %52, %53
  %54 = load i64, ptr %w, align 8
  %or31 = or i64 %or30, %54
  %55 = load i64, ptr %x, align 8
  %or32 = or i64 %or31, %55
  %56 = load i8, ptr %width, align 1
  %call = call noundef zeroext i8 @_ZN5arrow8internalL17ExpandedUIntWidthEmh(i64 noundef %or32, i8 noundef zeroext %56)
  store i8 %call, ptr %width, align 1
  %57 = load i8, ptr %width, align 1
  %conv33 = zext i8 %57 to i32
  %cmp34 = icmp eq i32 %conv33, 8
  %lnot = xor i1 %cmp34, true
  %lnot35 = xor i1 %lnot, true
  br i1 %lnot35, label %if.then37, label %if.end

if.then37:                                        ; preds = %while.body
  br label %while.end

if.end:                                           ; preds = %while.body
  br label %while.cond, !llvm.loop !133

while.end:                                        ; preds = %if.then37, %while.cond
  %58 = load ptr, ptr %p, align 8
  %59 = load ptr, ptr %end, align 8
  %add.ptr38 = getelementptr inbounds i64, ptr %59, i64 -8
  %cmp39 = icmp ule ptr %58, %add.ptr38
  br i1 %cmp39, label %if.then40, label %if.end62

if.then40:                                        ; preds = %while.end
  %60 = load ptr, ptr %p, align 8
  %arrayidx42 = getelementptr inbounds i64, ptr %60, i64 0
  %61 = load i64, ptr %arrayidx42, align 8
  store i64 %61, ptr %u41, align 8
  %62 = load ptr, ptr %p, align 8
  %arrayidx44 = getelementptr inbounds i64, ptr %62, i64 1
  %63 = load i64, ptr %arrayidx44, align 8
  store i64 %63, ptr %v43, align 8
  %64 = load ptr, ptr %p, align 8
  %arrayidx46 = getelementptr inbounds i64, ptr %64, i64 2
  %65 = load i64, ptr %arrayidx46, align 8
  store i64 %65, ptr %w45, align 8
  %66 = load ptr, ptr %p, align 8
  %arrayidx48 = getelementptr inbounds i64, ptr %66, i64 3
  %67 = load i64, ptr %arrayidx48, align 8
  store i64 %67, ptr %x47, align 8
  %68 = load ptr, ptr %p, align 8
  %arrayidx49 = getelementptr inbounds i64, ptr %68, i64 4
  %69 = load i64, ptr %arrayidx49, align 8
  %70 = load i64, ptr %u41, align 8
  %or50 = or i64 %70, %69
  store i64 %or50, ptr %u41, align 8
  %71 = load ptr, ptr %p, align 8
  %arrayidx51 = getelementptr inbounds i64, ptr %71, i64 5
  %72 = load i64, ptr %arrayidx51, align 8
  %73 = load i64, ptr %v43, align 8
  %or52 = or i64 %73, %72
  store i64 %or52, ptr %v43, align 8
  %74 = load ptr, ptr %p, align 8
  %arrayidx53 = getelementptr inbounds i64, ptr %74, i64 6
  %75 = load i64, ptr %arrayidx53, align 8
  %76 = load i64, ptr %w45, align 8
  %or54 = or i64 %76, %75
  store i64 %or54, ptr %w45, align 8
  %77 = load ptr, ptr %p, align 8
  %arrayidx55 = getelementptr inbounds i64, ptr %77, i64 7
  %78 = load i64, ptr %arrayidx55, align 8
  %79 = load i64, ptr %x47, align 8
  %or56 = or i64 %79, %78
  store i64 %or56, ptr %x47, align 8
  %80 = load ptr, ptr %p, align 8
  %add.ptr57 = getelementptr inbounds i64, ptr %80, i64 8
  store ptr %add.ptr57, ptr %p, align 8
  %81 = load i64, ptr %u41, align 8
  %82 = load i64, ptr %v43, align 8
  %or58 = or i64 %81, %82
  %83 = load i64, ptr %w45, align 8
  %or59 = or i64 %or58, %83
  %84 = load i64, ptr %x47, align 8
  %or60 = or i64 %or59, %84
  %85 = load i8, ptr %width, align 1
  %call61 = call noundef zeroext i8 @_ZN5arrow8internalL17ExpandedUIntWidthEmh(i64 noundef %or60, i8 noundef zeroext %85)
  store i8 %call61, ptr %width, align 1
  br label %if.end62

if.end62:                                         ; preds = %if.then40, %while.end
  br label %while.cond63

while.cond63:                                     ; preds = %while.body65, %if.end62
  %86 = load ptr, ptr %p, align 8
  %87 = load ptr, ptr %end, align 8
  %cmp64 = icmp ult ptr %86, %87
  br i1 %cmp64, label %while.body65, label %while.end67

while.body65:                                     ; preds = %while.cond63
  %88 = load ptr, ptr %p, align 8
  %incdec.ptr = getelementptr inbounds i64, ptr %88, i32 1
  store ptr %incdec.ptr, ptr %p, align 8
  %89 = load i64, ptr %88, align 8
  %90 = load i8, ptr %width, align 1
  %call66 = call noundef zeroext i8 @_ZN5arrow8internalL17ExpandedUIntWidthEmh(i64 noundef %89, i8 noundef zeroext %90)
  store i8 %call66, ptr %width, align 1
  br label %while.cond63, !llvm.loop !134

while.end67:                                      ; preds = %while.cond63
  br label %if.end68

if.end68:                                         ; preds = %while.end67, %entry
  %91 = load i8, ptr %width, align 1
  ret i8 %91
}