; Function Attrs: mustprogress nofree norecurse nosync nounwind willreturn memory(read, inaccessiblemem: none) uwtable
define noundef zeroext i8 @_ZN5arrow8internal15DetectUIntWidthEPKmlh(ptr noundef readonly %values, i64 noundef %length, i8 noundef zeroext %min_width) local_unnamed_addr #1 {
entry:
  %cmp = icmp ult i8 %min_width, 8
  br i1 %cmp, label %if.then, label %if.end68

if.then:                                          ; preds = %entry
  %add.ptr = getelementptr inbounds i64, ptr %values, i64 %length
  %add.ptr1 = getelementptr inbounds i8, ptr %add.ptr, i64 -128
  %cmp2.not92 = icmp ult ptr %add.ptr1, %values
  br i1 %cmp2.not92, label %while.end, label %while.body

while.body:                                       ; preds = %if.then, %_ZN5arrow8internalL17ExpandedUIntWidthEmh.exit
  %width.094 = phi i8 [ %retval.0.i, %_ZN5arrow8internalL17ExpandedUIntWidthEmh.exit ], [ %min_width, %if.then ]
  %p.093 = phi ptr [ %add.ptr29, %_ZN5arrow8internalL17ExpandedUIntWidthEmh.exit ], [ %values, %if.then ]
  %0 = load <16 x i64>, ptr %p.093, align 8
  %add.ptr29 = getelementptr inbounds i8, ptr %p.093, i64 128
  %1 = tail call i64 @llvm.vector.reduce.or.v16i64(<16 x i64> %0)
  %idxprom.i = zext i8 %width.094 to i64
  %arrayidx.i = getelementptr inbounds [9 x i64], ptr @_ZN5arrow8internalL9max_uintsE, i64 0, i64 %idxprom.i
  %2 = load i64, ptr %arrayidx.i, align 8
  %cmp.not.i = icmp ult i64 %2, %1
  br i1 %cmp.not.i, label %if.end.i, label %_ZN5arrow8internalL17ExpandedUIntWidthEmh.exit

if.end.i:                                         ; preds = %while.body
  %cmp2.i = icmp eq i8 %width.094, 1
  %cmp3.i = icmp ult i64 %1, 256
  %or.cond.i = and i1 %cmp2.i, %cmp3.i
  br i1 %or.cond.i, label %_ZN5arrow8internalL17ExpandedUIntWidthEmh.exit, label %if.else.i

if.else.i:                                        ; preds = %if.end.i
  %cmp6.i = icmp ult i8 %width.094, 3
  %cmp8.i = icmp ult i64 %1, 65536
  %or.cond1.i = and i1 %cmp6.i, %cmp8.i
  br i1 %or.cond1.i, label %_ZN5arrow8internalL17ExpandedUIntWidthEmh.exit, label %if.else10.i

if.else10.i:                                      ; preds = %if.else.i
  %cmp12.i = icmp ult i8 %width.094, 5
  %cmp14.i = icmp ult i64 %1, 4294967296
  %or.cond2.i = and i1 %cmp12.i, %cmp14.i
  br i1 %or.cond2.i, label %_ZN5arrow8internalL17ExpandedUIntWidthEmh.exit, label %while.end

_ZN5arrow8internalL17ExpandedUIntWidthEmh.exit:   ; preds = %if.else10.i, %while.body, %if.end.i, %if.else.i
  %retval.0.i = phi i8 [ %width.094, %while.body ], [ 1, %if.end.i ], [ 2, %if.else.i ], [ 4, %if.else10.i ]
  %cmp2.not = icmp ugt ptr %add.ptr29, %add.ptr1
  br i1 %cmp2.not, label %while.end, label %while.body, !llvm.loop !133

while.end:                                        ; preds = %_ZN5arrow8internalL17ExpandedUIntWidthEmh.exit, %if.else10.i, %if.then
  %p.1 = phi ptr [ %values, %if.then ], [ %add.ptr29, %if.else10.i ], [ %add.ptr29, %_ZN5arrow8internalL17ExpandedUIntWidthEmh.exit ]
  %width.1 = phi i8 [ %min_width, %if.then ], [ %retval.0.i, %_ZN5arrow8internalL17ExpandedUIntWidthEmh.exit ], [ 8, %if.else10.i ]
  %add.ptr38 = getelementptr inbounds i8, ptr %add.ptr, i64 -64
  %cmp39.not = icmp ugt ptr %p.1, %add.ptr38
  br i1 %cmp39.not, label %if.end62, label %if.then40

if.then40:                                        ; preds = %while.end
  %3 = load <8 x i64>, ptr %p.1, align 8
  %add.ptr57 = getelementptr inbounds i8, ptr %p.1, i64 64
  %4 = tail call i64 @llvm.vector.reduce.or.v8i64(<8 x i64> %3)
  %idxprom.i54 = zext i8 %width.1 to i64
  %arrayidx.i55 = getelementptr inbounds [9 x i64], ptr @_ZN5arrow8internalL9max_uintsE, i64 0, i64 %idxprom.i54
  %5 = load i64, ptr %arrayidx.i55, align 8
  %cmp.not.i56 = icmp ult i64 %5, %4
  br i1 %cmp.not.i56, label %if.end.i58, label %if.end62

if.end.i58:                                       ; preds = %if.then40
  %cmp2.i59 = icmp eq i8 %width.1, 1
  %cmp3.i60 = icmp ult i64 %4, 256
  %or.cond.i61 = and i1 %cmp2.i59, %cmp3.i60
  br i1 %or.cond.i61, label %if.end62, label %if.else.i62

if.else.i62:                                      ; preds = %if.end.i58
  %cmp6.i63 = icmp ult i8 %width.1, 3
  %cmp8.i64 = icmp ult i64 %4, 65536
  %or.cond1.i65 = and i1 %cmp6.i63, %cmp8.i64
  br i1 %or.cond1.i65, label %if.end62, label %if.else10.i66

if.else10.i66:                                    ; preds = %if.else.i62
  %cmp12.i67 = icmp ult i8 %width.1, 5
  %cmp14.i68 = icmp ult i64 %4, 4294967296
  %or.cond2.i69 = and i1 %cmp12.i67, %cmp14.i68
  %..i70 = select i1 %or.cond2.i69, i8 4, i8 8
  br label %if.end62

if.end62:                                         ; preds = %if.else10.i66, %if.else.i62, %if.end.i58, %if.then40, %while.end
  %p.2 = phi ptr [ %p.1, %while.end ], [ %add.ptr57, %if.then40 ], [ %add.ptr57, %if.end.i58 ], [ %add.ptr57, %if.else.i62 ], [ %add.ptr57, %if.else10.i66 ]
  %width.2 = phi i8 [ %width.1, %while.end ], [ %width.1, %if.then40 ], [ 1, %if.end.i58 ], [ 2, %if.else.i62 ], [ %..i70, %if.else10.i66 ]
  %cmp6498 = icmp ult ptr %p.2, %add.ptr
  br i1 %cmp6498, label %while.body65, label %if.end68

while.body65:                                     ; preds = %if.end62, %_ZN5arrow8internalL17ExpandedUIntWidthEmh.exit89
  %width.3100 = phi i8 [ %retval.0.i75, %_ZN5arrow8internalL17ExpandedUIntWidthEmh.exit89 ], [ %width.2, %if.end62 ]
  %p.399 = phi ptr [ %incdec.ptr, %_ZN5arrow8internalL17ExpandedUIntWidthEmh.exit89 ], [ %p.2, %if.end62 ]
  %incdec.ptr = getelementptr inbounds i8, ptr %p.399, i64 8
  %6 = load i64, ptr %p.399, align 8
  %idxprom.i72 = zext i8 %width.3100 to i64
  %arrayidx.i73 = getelementptr inbounds [9 x i64], ptr @_ZN5arrow8internalL9max_uintsE, i64 0, i64 %idxprom.i72
  %7 = load i64, ptr %arrayidx.i73, align 8
  %cmp.not.i74 = icmp ult i64 %7, %6
  br i1 %cmp.not.i74, label %if.end.i76, label %_ZN5arrow8internalL17ExpandedUIntWidthEmh.exit89

if.end.i76:                                       ; preds = %while.body65
  %cmp2.i77 = icmp eq i8 %width.3100, 1
  %cmp3.i78 = icmp ult i64 %6, 256
  %or.cond.i79 = and i1 %cmp2.i77, %cmp3.i78
  br i1 %or.cond.i79, label %_ZN5arrow8internalL17ExpandedUIntWidthEmh.exit89, label %if.else.i80

if.else.i80:                                      ; preds = %if.end.i76
  %cmp6.i81 = icmp ult i8 %width.3100, 3
  %cmp8.i82 = icmp ult i64 %6, 65536
  %or.cond1.i83 = and i1 %cmp6.i81, %cmp8.i82
  br i1 %or.cond1.i83, label %_ZN5arrow8internalL17ExpandedUIntWidthEmh.exit89, label %if.else10.i84

if.else10.i84:                                    ; preds = %if.else.i80
  %cmp12.i85 = icmp ult i8 %width.3100, 5
  %cmp14.i86 = icmp ult i64 %6, 4294967296
  %or.cond2.i87 = and i1 %cmp12.i85, %cmp14.i86
  %..i88 = select i1 %or.cond2.i87, i8 4, i8 8
  br label %_ZN5arrow8internalL17ExpandedUIntWidthEmh.exit89

_ZN5arrow8internalL17ExpandedUIntWidthEmh.exit89: ; preds = %while.body65, %if.end.i76, %if.else.i80, %if.else10.i84
  %retval.0.i75 = phi i8 [ %width.3100, %while.body65 ], [ 1, %if.end.i76 ], [ 2, %if.else.i80 ], [ %..i88, %if.else10.i84 ]
  %cmp64 = icmp ult ptr %incdec.ptr, %add.ptr
  br i1 %cmp64, label %while.body65, label %if.end68, !llvm.loop !134

if.end68:                                         ; preds = %_ZN5arrow8internalL17ExpandedUIntWidthEmh.exit89, %if.end62, %entry
  %width.4 = phi i8 [ %min_width, %entry ], [ %width.2, %if.end62 ], [ %retval.0.i75, %_ZN5arrow8internalL17ExpandedUIntWidthEmh.exit89 ]
  ret i8 %width.4
}